(dp0
S'pathsTotal'
p1
I1394
sS'lastHang'
p2
I0
sS'hangs'
p3
I0
sS'crashes'
p4
I18
sS'lastCrash'
p5
I1563290171
sS'lastPath'
p6
I1563328784
sS'totalCycles'
p7
I134509356
sS'pathsFavorite'
p8
I340
sS'totalExecs'
p9
I275705419
sS'totalFuzzers'
p10
I5
sS'maxCycle'
p11
I134506070
sS'mostStable'
p12
F100.0
sS'aliveFuzzers'
p13
I0
sS'pendingGeneral'
p14
I447
sS'leastStable'
p15
I100
sS'totalStability'
p16
F500.0
sS'pendingFavorite'
p17
I74
sS'totalSpeed'
p18
I0
s.