(dp0
S'pathsTotal'
p1
I15426
sS'lastHang'
p2
I1563382595
sS'hangs'
p3
I36
sS'crashes'
p4
I0
sS'lastCrash'
p5
I0
sS'lastPath'
p6
I1563413435
sS'totalCycles'
p7
I1772
sS'pathsFavorite'
p8
I1216
sS'totalExecs'
p9
I32062264
sS'totalFuzzers'
p10
I4
sS'maxCycle'
p11
I593
sS'mostStable'
p12
F100.0
sS'aliveFuzzers'
p13
I4
sS'pendingGeneral'
p14
I12613
sS'leastStable'
p15
I100
sS'totalStability'
p16
F400.0
sS'pendingFavorite'
p17
I626
sS'totalSpeed'
p18
F435.93
s.